target datalayout = "e-m:e-p270:32:32-p271:32:32-p272:64:64-i64:64-i128:128-f80:128-n8:16:32:64-S128"
target triple = "x86_64-pc-linux-gnu"

%struct.ident_t = type { i32, i32, i32, i32, ptr }
%"class.std::vector" = type { %"struct.std::_Vector_base" }
%"struct.std::_Vector_base" = type { %"struct.std::_Vector_base<long, std::allocator<long>>::_Vector_impl" }
%"struct.std::_Vector_base<long, std::allocator<long>>::_Vector_impl" = type { %"struct.std::_Vector_base<long, std::allocator<long>>::_Vector_impl_data" }
%"struct.std::_Vector_base<long, std::allocator<long>>::_Vector_impl_data" = type { ptr, ptr, ptr }
%"struct.faiss::Index.base" = type <{ ptr, i32, [4 x i8], i64, i8, i8, [2 x i8], i32, float }>
%"struct.faiss::IndexIVFInterface" = type { ptr, %"struct.faiss::Level1Quantizer", i64, i64 }
%"struct.faiss::Level1Quantizer" = type { ptr, i64, i8, i8, [6 x i8], %"struct.faiss::ClusteringParameters", ptr }
%"struct.faiss::ClusteringParameters" = type <{ i32, i32, i8, i8, i8, i8, i8, [3 x i8], i32, i32, i32, [4 x i8], i64, i8, i8, [6 x i8] }>
%"struct.faiss::DirectMap" = type { i32, %"class.std::vector", %"class.std::unordered_map" }
%"class.std::unordered_map" = type { %"class.std::_Hashtable" }
%"class.std::_Hashtable" = type { ptr, i64, %"struct.std::__detail::_Hash_node_base", i64, %"struct.std::__detail::_Prime_rehash_policy", ptr }
%"struct.std::__detail::_Hash_node_base" = type { ptr }
%"struct.std::__detail::_Prime_rehash_policy" = type { float, i64 }
%"struct.faiss::IndexIVFFastScan" = type { %"struct.faiss::IndexIVF.base", i32, i64, i64, i64, i64, i32, i32, i32, i64, ptr, ptr }
%"struct.faiss::IndexIVF.base" = type <{ %"struct.faiss::Index.base", [4 x i8], %"struct.faiss::IndexIVFInterface", ptr, i8, [7 x i8], i64, i32, i32, %"struct.faiss::DirectMap", i8 }>
%"struct.faiss::IndexIVFFastScan::CoarseQuantized" = type { i64, ptr, ptr }
%"struct.faiss::AlignedTable.20" = type { %"struct.faiss::AlignedTableTightAlloc.21", i64 }
%"struct.faiss::AlignedTableTightAlloc.21" = type { ptr, i64 }

@2 = private unnamed_addr constant %struct.ident_t { i32 0, i32 2, i32 0, i32 22, ptr @0 }, align 8

; Function Attrs: mustprogress nounwind uwtable
define linkonce_odr void @_ZN5faiss22AlignedTableTightAllocIfLi32EED2Ev(ptr noundef nonnull align 8 dereferenceable(16) %0) unnamed_addr #0 comdat align 2 {
  %2 = alloca ptr, align 8
  store ptr %0, ptr %2, align 8, !tbaa !256
  %3 = load ptr, ptr %2, align 8
  %4 = getelementptr inbounds nuw %"struct.faiss::AlignedTableTightAlloc.21", ptr %3, i32 0, i32 0
  %5 = load ptr, ptr %4, align 8, !tbaa !258
  call void @free(ptr noundef %5) #6
  ret void
}

; Function Attrs: mustprogress nounwind uwtable
define linkonce_odr noundef ptr @_ZN5faiss22AlignedTableTightAllocIfLi32EE3getEv(ptr noundef nonnull align 8 dereferenceable(16) %0) #0 comdat align 2 {
  %2 = alloca ptr, align 8
  store ptr %0, ptr %2, align 8, !tbaa !256
  %3 = load ptr, ptr %2, align 8
  %4 = getelementptr inbounds nuw %"struct.faiss::AlignedTableTightAlloc.21", ptr %3, i32 0, i32 0
  %5 = load ptr, ptr %4, align 8, !tbaa !258
  ret ptr %5
}

; Function Attrs: mustprogress nounwind uwtable
define linkonce_odr void @_ZN5faiss22AlignedTableTightAllocIfLi32EEC2Ev(ptr noundef nonnull align 8 dereferenceable(16) %0) unnamed_addr #0 comdat align 2 {
  %2 = alloca ptr, align 8
  store ptr %0, ptr %2, align 8, !tbaa !256
  %3 = load ptr, ptr %2, align 8
  %4 = getelementptr inbounds nuw %"struct.faiss::AlignedTableTightAlloc.21", ptr %3, i32 0, i32 0
  store ptr null, ptr %4, align 8, !tbaa !258
  %5 = getelementptr inbounds nuw %"struct.faiss::AlignedTableTightAlloc.21", ptr %3, i32 0, i32 1
  store i64 0, ptr %5, align 8, !tbaa !259
  ret void
}

; Function Attrs: inlinehint mustprogress nounwind uwtable
define linkonce_odr void @_ZN5faiss12AlignedTableIfLi32EED2Ev(ptr noundef nonnull align 8 dereferenceable(24) %0) unnamed_addr #8 comdat align 2 {
  %2 = alloca ptr, align 8
  store ptr %0, ptr %2, align 8, !tbaa !240
  %3 = load ptr, ptr %2, align 8
  %4 = getelementptr inbounds nuw %"struct.faiss::AlignedTable.20", ptr %3, i32 0, i32 0
  call void @_ZN5faiss22AlignedTableTightAllocIfLi32EED2Ev(ptr noundef nonnull align 8 dereferenceable(16) %4) #6
  ret void
}

; Function Attrs: mustprogress uwtable
define linkonce_odr noundef ptr @_ZN5faiss12AlignedTableIfLi32EE3getEv(ptr noundef nonnull align 8 dereferenceable(24) %0) #2 comdat align 2 {
  %2 = alloca ptr, align 8
  store ptr %0, ptr %2, align 8, !tbaa !240
  %3 = load ptr, ptr %2, align 8
  %4 = getelementptr inbounds nuw %"struct.faiss::AlignedTable.20", ptr %3, i32 0, i32 0
  %5 = call noundef ptr @_ZN5faiss22AlignedTableTightAllocIfLi32EE3getEv(ptr noundef nonnull align 8 dereferenceable(16) %4)
  ret ptr %5
}

; Function Attrs: mustprogress uwtable
define linkonce_odr void @_ZN5faiss12AlignedTableIfLi32EEC2Ev(ptr noundef nonnull align 8 dereferenceable(24) %0) unnamed_addr #2 comdat align 2 {
  %2 = alloca ptr, align 8
  store ptr %0, ptr %2, align 8, !tbaa !240
  %3 = load ptr, ptr %2, align 8
  %4 = getelementptr inbounds nuw %"struct.faiss::AlignedTable.20", ptr %3, i32 0, i32 0
  call void @_ZN5faiss22AlignedTableTightAllocIfLi32EEC2Ev(ptr noundef nonnull align 8 dereferenceable(16) %4)
  %5 = getelementptr inbounds nuw %"struct.faiss::AlignedTable.20", ptr %3, i32 0, i32 1
  store i64 0, ptr %5, align 8, !tbaa !242
  ret void
}

; Function Attrs: mustprogress uwtable
define void @_ZNK5faiss16IndexIVFFastScan17compute_LUT_uint8EmPKfRKNS0_15CoarseQuantizedERNS_12AlignedTableIhLi32EEERNS6_ItLi32EEEPf(ptr noundef nonnull align 8 dereferenceable(344) %0, i64 noundef %1, ptr noundef %2, ptr noundef nonnull align 8 dereferenceable(24) %3, ptr noundef nonnull align 8 dereferenceable(24) %4, ptr noundef nonnull align 8 dereferenceable(24) %5, ptr noundef %6) #2 align 2 personality ptr @__gxx_personality_v0 {
  %8 = alloca ptr, align 8
  %9 = alloca i64, align 8
  %10 = alloca ptr, align 8
  %11 = alloca ptr, align 8
  %12 = alloca ptr, align 8
  %13 = alloca ptr, align 8
  %14 = alloca ptr, align 8
  %15 = alloca %"struct.faiss::AlignedTable.20", align 8
  %16 = alloca %"struct.faiss::AlignedTable.20", align 8
  %17 = alloca ptr, align 8
  %18 = alloca i32, align 4
  %19 = alloca i64, align 8
  %20 = alloca i8, align 1
  %21 = alloca i64, align 8
  %22 = alloca i64, align 8
  %23 = alloca i32, align 4
  %24 = alloca i32, align 4
  %25 = call i32 @__kmpc_global_thread_num(ptr @2)
  store ptr %0, ptr %8, align 8, !tbaa !4
  store i64 %1, ptr %9, align 8, !tbaa !9
  store ptr %2, ptr %10, align 8, !tbaa !11
  store ptr %3, ptr %11, align 8, !tbaa !236
  store ptr %4, ptr %12, align 8, !tbaa !137
  store ptr %5, ptr %13, align 8, !tbaa !238
  store ptr %6, ptr %14, align 8, !tbaa !11
  %26 = load ptr, ptr %8, align 8
  call void @llvm.lifetime.start.p0(i64 24, ptr %15) #6
  call void @_ZN5faiss12AlignedTableIfLi32EEC2Ev(ptr noundef nonnull align 8 dereferenceable(24) %15)
  call void @llvm.lifetime.start.p0(i64 24, ptr %16) #6
  invoke void @_ZN5faiss12AlignedTableIfLi32EEC2Ev(ptr noundef nonnull align 8 dereferenceable(24) %16)
          to label %27 unwind label %63

27:                                               ; preds = %7
  %28 = load i64, ptr %9, align 8, !tbaa !9
  %29 = load ptr, ptr %10, align 8, !tbaa !11
  %30 = load ptr, ptr %11, align 8, !tbaa !236
  %31 = load ptr, ptr %26, align 8, !tbaa !28
  %32 = getelementptr inbounds ptr, ptr %31, i64 35
  %33 = load ptr, ptr %32, align 8
  invoke void %33(ptr noundef nonnull align 8 dereferenceable(344) %26, i64 noundef %28, ptr noundef %29, ptr noundef nonnull align 8 dereferenceable(24) %30, ptr noundef nonnull align 8 dereferenceable(24) %15, ptr noundef nonnull align 8 dereferenceable(24) %16)
          to label %34 unwind label %67

34:                                               ; preds = %27
  call void @llvm.lifetime.start.p0(i64 8, ptr %19) #6
  %35 = load ptr, ptr %11, align 8, !tbaa !236
  %36 = getelementptr inbounds nuw %"struct.faiss::IndexIVFFastScan::CoarseQuantized", ptr %35, i32 0, i32 0
  %37 = load i64, ptr %36, align 8, !tbaa !79
  store i64 %37, ptr %19, align 8, !tbaa !9
  call void @llvm.lifetime.start.p0(i64 1, ptr %20) #6
  %38 = load ptr, ptr %26, align 8, !tbaa !28
  %39 = getelementptr inbounds ptr, ptr %38, i64 34
  %40 = load ptr, ptr %39, align 8
  %41 = invoke noundef zeroext i1 %40(ptr noundef nonnull align 8 dereferenceable(344) %26)
          to label %42 unwind label %71

42:                                               ; preds = %34
  %43 = zext i1 %41 to i8
  store i8 %43, ptr %20, align 1, !tbaa !85
  call void @llvm.lifetime.start.p0(i64 8, ptr %21) #6
  %44 = getelementptr inbounds nuw %"struct.faiss::IndexIVFFastScan", ptr %26, i32 0, i32 4
  %45 = load i64, ptr %44, align 8, !tbaa !121
  %46 = getelementptr inbounds nuw %"struct.faiss::IndexIVFFastScan", ptr %26, i32 0, i32 2
  %47 = load i64, ptr %46, align 8, !tbaa !62
  %48 = mul i64 %45, %47
  store i64 %48, ptr %21, align 8, !tbaa !9
  call void @llvm.lifetime.start.p0(i64 8, ptr %22) #6
  %49 = getelementptr inbounds nuw %"struct.faiss::IndexIVFFastScan", ptr %26, i32 0, i32 4
  %50 = load i64, ptr %49, align 8, !tbaa !121
  %51 = getelementptr inbounds nuw %"struct.faiss::IndexIVFFastScan", ptr %26, i32 0, i32 5
  %52 = load i64, ptr %51, align 8, !tbaa !66
  %53 = mul i64 %50, %52
  store i64 %53, ptr %22, align 8, !tbaa !9
  %54 = load i8, ptr %20, align 1, !tbaa !85, !range !21, !noundef !22
  %55 = trunc i8 %54 to i1
  br i1 %55, label %56, label %75

56:                                               ; preds = %42
  %57 = load i64, ptr %19, align 8, !tbaa !9
  %58 = load i64, ptr %21, align 8, !tbaa !9
  %59 = mul i64 %58, %57
  store i64 %59, ptr %21, align 8, !tbaa !9
  %60 = load i64, ptr %19, align 8, !tbaa !9
  %61 = load i64, ptr %22, align 8, !tbaa !9
  %62 = mul i64 %61, %60
  store i64 %62, ptr %22, align 8, !tbaa !9
  br label %75

63:                                               ; preds = %7
  %64 = landingpad { ptr, i32 }
          cleanup
  %65 = extractvalue { ptr, i32 } %64, 0
  store ptr %65, ptr %17, align 8
  %66 = extractvalue { ptr, i32 } %64, 1
  store i32 %66, ptr %18, align 4
  br label %104

67:                                               ; preds = %27
  %68 = landingpad { ptr, i32 }
          cleanup
  %69 = extractvalue { ptr, i32 } %68, 0
  store ptr %69, ptr %17, align 8
  %70 = extractvalue { ptr, i32 } %68, 1
  store i32 %70, ptr %18, align 4
  br label %103

71:                                               ; preds = %34
  %72 = landingpad { ptr, i32 }
          cleanup
  %73 = extractvalue { ptr, i32 } %72, 0
  store ptr %73, ptr %17, align 8
  %74 = extractvalue { ptr, i32 } %72, 1
  store i32 %74, ptr %18, align 4
  br label %102

75:                                               ; preds = %56, %42
  %76 = load ptr, ptr %12, align 8, !tbaa !137
  %77 = load i64, ptr %9, align 8, !tbaa !9
  %78 = load i64, ptr %22, align 8, !tbaa !9
  %79 = mul i64 %77, %78
  invoke void @_ZN5faiss12AlignedTableIhLi32EE6resizeEm(ptr noundef nonnull align 8 dereferenceable(24) %76, i64 noundef %79)
          to label %80 unwind label %90

80:                                               ; preds = %75
  %81 = invoke noundef ptr @_ZN5faiss12AlignedTableIfLi32EE3getEv(ptr noundef nonnull align 8 dereferenceable(24) %16)
          to label %82 unwind label %90

82:                                               ; preds = %80
  %83 = icmp ne ptr %81, null
  br i1 %83, label %84, label %94

84:                                               ; preds = %82
  %85 = load ptr, ptr %13, align 8, !tbaa !238
  %86 = load i64, ptr %9, align 8, !tbaa !9
  %87 = load i64, ptr %19, align 8, !tbaa !9
  %88 = mul i64 %86, %87
  invoke void @_ZN5faiss12AlignedTableItLi32EE6resizeEm(ptr noundef nonnull align 8 dereferenceable(24) %85, i64 noundef %88)
          to label %89 unwind label %90

89:                                               ; preds = %84
  br label %94

90:                                               ; preds = %84, %80, %75
  %91 = landingpad { ptr, i32 }
          cleanup
  %92 = extractvalue { ptr, i32 } %91, 0
  store ptr %92, ptr %17, align 8
  %93 = extractvalue { ptr, i32 } %91, 1
  store i32 %93, ptr %18, align 4
  call void @llvm.lifetime.end.p0(i64 8, ptr %22) #6
  call void @llvm.lifetime.end.p0(i64 8, ptr %21) #6
  br label %102

94:                                               ; preds = %89, %82
  %95 = load ptr, ptr %12, align 8, !tbaa !137
  %96 = load ptr, ptr %13, align 8, !tbaa !238
  %97 = load i64, ptr %9, align 8, !tbaa !9
  %98 = icmp ugt i64 %97, 100
  br i1 %98, label %99, label %100

99:                                               ; preds = %94
  call void (ptr, i32, ptr, ...) @__kmpc_fork_call(ptr @2, i32 11, ptr @_ZNK5faiss16IndexIVFFastScan17compute_LUT_uint8EmPKfRKNS0_15CoarseQuantizedERNS_12AlignedTableIhLi32EEERNS6_ItLi32EEEPf.omp_outlined, ptr %9, ptr %15, ptr %21, ptr %95, ptr %22, ptr %16, ptr %19, ptr %96, ptr %26, ptr %20, ptr %14)
  br label %101

100:                                              ; preds = %94
  call void @__kmpc_serialized_parallel(ptr @2, i32 %25)
  store i32 %25, ptr %23, align 4, !tbaa !23
  store i32 0, ptr %24, align 4
  call void @_ZNK5faiss16IndexIVFFastScan17compute_LUT_uint8EmPKfRKNS0_15CoarseQuantizedERNS_12AlignedTableIhLi32EEERNS6_ItLi32EEEPf.omp_outlined(ptr %23, ptr %24, ptr %9, ptr %15, ptr %21, ptr %95, ptr %22, ptr %16, ptr %19, ptr %96, ptr %26, ptr %20, ptr %14) #6
  call void @__kmpc_end_serialized_parallel(ptr @2, i32 %25)
  br label %101

101:                                              ; preds = %100, %99
  call void @llvm.lifetime.end.p0(i64 8, ptr %22) #6
  call void @llvm.lifetime.end.p0(i64 8, ptr %21) #6
  call void @llvm.lifetime.end.p0(i64 1, ptr %20) #6
  call void @llvm.lifetime.end.p0(i64 8, ptr %19) #6
  call void @_ZN5faiss12AlignedTableIfLi32EED2Ev(ptr noundef nonnull align 8 dereferenceable(24) %16) #6
  call void @llvm.lifetime.end.p0(i64 24, ptr %16) #6
  call void @_ZN5faiss12AlignedTableIfLi32EED2Ev(ptr noundef nonnull align 8 dereferenceable(24) %15) #6
  call void @llvm.lifetime.end.p0(i64 24, ptr %15) #6
  ret void

102:                                              ; preds = %90, %71
  call void @llvm.lifetime.end.p0(i64 1, ptr %20) #6
  call void @llvm.lifetime.end.p0(i64 8, ptr %19) #6
  br label %103

103:                                              ; preds = %102, %67
  call void @_ZN5faiss12AlignedTableIfLi32EED2Ev(ptr noundef nonnull align 8 dereferenceable(24) %16) #6
  br label %104

104:                                              ; preds = %103, %63
  call void @llvm.lifetime.end.p0(i64 24, ptr %16) #6
  call void @_ZN5faiss12AlignedTableIfLi32EED2Ev(ptr noundef nonnull align 8 dereferenceable(24) %15) #6
  call void @llvm.lifetime.end.p0(i64 24, ptr %15) #6
  br label %105

105:                                              ; preds = %104
  %106 = load ptr, ptr %17, align 8
  %107 = load i32, ptr %18, align 4
  %108 = insertvalue { ptr, i32 } poison, ptr %106, 0
  %109 = insertvalue { ptr, i32 } %108, i32 %107, 1
  resume { ptr, i32 } %109
}