; Function Attrs: mustprogress uwtable
define void @_ZNK5faiss16IndexIVFFastScan17compute_LUT_uint8EmPKfRKNS0_15CoarseQuantizedERNS_12AlignedTableIhLi32EEERNS6_ItLi32EEEPf(ptr noundef nonnull align 8 dereferenceable(344) %0, i64 noundef %1, ptr noundef %2, ptr noundef nonnull align 8 dereferenceable(24) %3, ptr noundef nonnull align 8 dereferenceable(24) %4, ptr noundef nonnull align 8 dereferenceable(24) %5, ptr noundef %6) local_unnamed_addr #2 align 2 personality ptr @__gxx_personality_v0 {
  %8 = alloca i64, align 8
  %9 = alloca ptr, align 8
  %10 = alloca %"struct.faiss::AlignedTable.20", align 8
  %11 = alloca %"struct.faiss::AlignedTable.20", align 8
  %12 = alloca i64, align 8
  %13 = alloca i8, align 1
  %14 = alloca i64, align 8
  %15 = alloca i64, align 8
  %16 = alloca i32, align 4
  %17 = tail call i32 @__kmpc_global_thread_num(ptr nonnull @2)
  store i64 %1, ptr %8, align 8, !tbaa !54
  store ptr %6, ptr %9, align 8, !tbaa !78
  call void @llvm.lifetime.start.p0(i64 24, ptr nonnull %10) #25
  call void @llvm.memset.p0.i64(ptr noundef nonnull align 8 dereferenceable(24) %10, i8 0, i64 24, i1 false)
  call void @llvm.lifetime.start.p0(i64 24, ptr nonnull %11) #25
  call void @llvm.memset.p0.i64(ptr noundef nonnull align 8 dereferenceable(24) %11, i8 0, i64 24, i1 false)
  %18 = load ptr, ptr %0, align 8, !tbaa !25
  %19 = getelementptr inbounds nuw i8, ptr %18, i64 280
  %20 = load ptr, ptr %19, align 8
  invoke void %20(ptr noundef nonnull align 8 dereferenceable(344) %0, i64 noundef %1, ptr noundef %2, ptr noundef nonnull align 8 dereferenceable(24) %3, ptr noundef nonnull align 8 dereferenceable(24) %10, ptr noundef nonnull align 8 dereferenceable(24) %11)
          to label %21 unwind label %40

21:                                               ; preds = %7
  call void @llvm.lifetime.start.p0(i64 8, ptr nonnull %12) #25
  %22 = load i64, ptr %3, align 8, !tbaa !75
  store i64 %22, ptr %12, align 8, !tbaa !54
  call void @llvm.lifetime.start.p0(i64 1, ptr nonnull %13) #25
  %23 = load ptr, ptr %0, align 8, !tbaa !25
  %24 = getelementptr inbounds nuw i8, ptr %23, i64 272
  %25 = load ptr, ptr %24, align 8
  %26 = invoke noundef zeroext i1 %25(ptr noundef nonnull align 8 dereferenceable(344) %0)
          to label %27 unwind label %42

27:                                               ; preds = %21
  %28 = zext i1 %26 to i8
  store i8 %28, ptr %13, align 1, !tbaa !124
  call void @llvm.lifetime.start.p0(i64 8, ptr nonnull %14) #25
  %29 = getelementptr inbounds nuw i8, ptr %0, i64 288
  %30 = load i64, ptr %29, align 8, !tbaa !96
  %31 = getelementptr inbounds nuw i8, ptr %0, i64 272
  %32 = load i64, ptr %31, align 8, !tbaa !59
  %33 = mul i64 %32, %30
  store i64 %33, ptr %14, align 8, !tbaa !54
  call void @llvm.lifetime.start.p0(i64 8, ptr nonnull %15) #25
  %34 = getelementptr inbounds nuw i8, ptr %0, i64 296
  %35 = load i64, ptr %34, align 8, !tbaa !63
  %36 = mul i64 %35, %30
  store i64 %36, ptr %15, align 8, !tbaa !54
  br i1 %26, label %37, label %44

37:                                               ; preds = %27
  %38 = mul i64 %22, %33
  store i64 %38, ptr %14, align 8, !tbaa !54
  %39 = mul i64 %22, %36
  store i64 %39, ptr %15, align 8, !tbaa !54
  br label %44

40:                                               ; preds = %7
  %41 = landingpad { ptr, i32 }
          cleanup
  br label %61

42:                                               ; preds = %21
  %43 = landingpad { ptr, i32 }
          cleanup
  br label %60

44:                                               ; preds = %37, %27
  %45 = phi i64 [ %39, %37 ], [ %36, %27 ]
  %46 = mul i64 %45, %1
  invoke void @_ZN5faiss12AlignedTableIhLi32EE6resizeEm(ptr noundef nonnull align 8 dereferenceable(24) %4, i64 noundef %46)
          to label %47 unwind label %51

47:                                               ; preds = %44
  %48 = load ptr, ptr %11, align 8, !tbaa !125
  %.not = icmp eq ptr %48, null
  br i1 %.not, label %53, label %49

49:                                               ; preds = %47
  %50 = mul i64 %22, %1
  invoke void @_ZN5faiss12AlignedTableItLi32EE6resizeEm(ptr noundef nonnull align 8 dereferenceable(24) %5, i64 noundef %50)
          to label %53 unwind label %51

51:                                               ; preds = %49, %44
  %52 = landingpad { ptr, i32 }
          cleanup
  call void @llvm.lifetime.end.p0(i64 8, ptr nonnull %15) #25
  call void @llvm.lifetime.end.p0(i64 8, ptr nonnull %14) #25
  br label %60

53:                                               ; preds = %49, %47
  %54 = icmp ugt i64 %1, 100
  br i1 %54, label %55, label %56

55:                                               ; preds = %53
  call void (ptr, i32, ptr, ...) @__kmpc_fork_call(ptr nonnull @2, i32 11, ptr nonnull @_ZNK5faiss16IndexIVFFastScan17compute_LUT_uint8EmPKfRKNS0_15CoarseQuantizedERNS_12AlignedTableIhLi32EEERNS6_ItLi32EEEPf.omp_outlined, ptr nonnull %8, ptr nonnull %10, ptr nonnull %14, ptr nonnull %4, ptr nonnull %15, ptr nonnull %11, ptr nonnull %12, ptr nonnull %5, ptr nonnull %0, ptr nonnull %13, ptr nonnull %9)
  br label %57

56:                                               ; preds = %53
  call void @__kmpc_serialized_parallel(ptr nonnull @2, i32 %17)
  store i32 %17, ptr %16, align 4, !tbaa !79
  call void @_ZNK5faiss16IndexIVFFastScan17compute_LUT_uint8EmPKfRKNS0_15CoarseQuantizedERNS_12AlignedTableIhLi32EEERNS6_ItLi32EEEPf.omp_outlined(ptr nonnull %16, ptr nonnull poison, ptr %8, ptr %10, ptr %14, ptr %4, ptr %15, ptr %11, ptr %12, ptr %5, ptr nonnull %0, ptr %13, ptr %9) #25
  call void @__kmpc_end_serialized_parallel(ptr nonnull @2, i32 %17)
  br label %57

57:                                               ; preds = %56, %55
  call void @llvm.lifetime.end.p0(i64 8, ptr nonnull %15) #25
  call void @llvm.lifetime.end.p0(i64 8, ptr nonnull %14) #25
  call void @llvm.lifetime.end.p0(i64 1, ptr nonnull %13) #25
  call void @llvm.lifetime.end.p0(i64 8, ptr nonnull %12) #25
  %58 = load ptr, ptr %11, align 8, !tbaa !125
  call void @free(ptr noundef %58) #25
  call void @llvm.lifetime.end.p0(i64 24, ptr nonnull %11) #25
  %59 = load ptr, ptr %10, align 8, !tbaa !125
  call void @free(ptr noundef %59) #25
  call void @llvm.lifetime.end.p0(i64 24, ptr nonnull %10) #25
  ret void

60:                                               ; preds = %51, %42
  %.pn = phi { ptr, i32 } [ %52, %51 ], [ %43, %42 ]
  call void @llvm.lifetime.end.p0(i64 1, ptr nonnull %13) #25
  call void @llvm.lifetime.end.p0(i64 8, ptr nonnull %12) #25
  br label %61

61:                                               ; preds = %60, %40
  %.pn.pn = phi { ptr, i32 } [ %.pn, %60 ], [ %41, %40 ]
  %62 = load ptr, ptr %11, align 8, !tbaa !125
  call void @free(ptr noundef %62) #25
  call void @llvm.lifetime.end.p0(i64 24, ptr nonnull %11) #25
  %63 = load ptr, ptr %10, align 8, !tbaa !125
  call void @free(ptr noundef %63) #25
  call void @llvm.lifetime.end.p0(i64 24, ptr nonnull %10) #25
  resume { ptr, i32 } %.pn.pn
}